target datalayout = "e-m:e-p270:32:32-p271:32:32-p272:64:64-i64:64-i128:128-f80:128-n8:16:32:64-S128"
target triple = "x86_64-pc-linux-gnu"

@_ZZN5boost7archive6detail6detail25get_octet1_modifier_tableEvE21octet1_modifier_table = linkonce_odr hidden constant [6 x i32] [i32 0, i32 192, i32 224, i32 240, i32 248, i32 252], comdat, align 16

; Function Attrs: mustprogress nounwind uwtable
define noundef i32 @_ZN5boost7archive6detail18utf8_codecvt_facet15get_octet_countEh(i8 noundef zeroext %0) #3 align 2 {
  %2 = alloca i32, align 4
  %3 = alloca i8, align 1
  store i8 %0, ptr %3, align 1, !tbaa !11
  %4 = load i8, ptr %3, align 1, !tbaa !11
  %5 = zext i8 %4 to i32
  %6 = icmp sle i32 %5, 127
  br i1 %6, label %7, label %8

7:                                                ; preds = %1
  store i32 1, ptr %2, align 4
  br label %45

8:                                                ; preds = %1
  %9 = load i8, ptr %3, align 1, !tbaa !11
  %10 = zext i8 %9 to i32
  %11 = icmp sle i32 192, %10
  br i1 %11, label %12, label %17

12:                                               ; preds = %8
  %13 = load i8, ptr %3, align 1, !tbaa !11
  %14 = zext i8 %13 to i32
  %15 = icmp sle i32 %14, 223
  br i1 %15, label %16, label %17

16:                                               ; preds = %12
  store i32 2, ptr %2, align 4
  br label %45

17:                                               ; preds = %12, %8
  %18 = load i8, ptr %3, align 1, !tbaa !11
  %19 = zext i8 %18 to i32
  %20 = icmp sle i32 224, %19
  br i1 %20, label %21, label %26

21:                                               ; preds = %17
  %22 = load i8, ptr %3, align 1, !tbaa !11
  %23 = zext i8 %22 to i32
  %24 = icmp sle i32 %23, 239
  br i1 %24, label %25, label %26

25:                                               ; preds = %21
  store i32 3, ptr %2, align 4
  br label %45

26:                                               ; preds = %21, %17
  %27 = load i8, ptr %3, align 1, !tbaa !11
  %28 = zext i8 %27 to i32
  %29 = icmp sle i32 240, %28
  br i1 %29, label %30, label %35

30:                                               ; preds = %26
  %31 = load i8, ptr %3, align 1, !tbaa !11
  %32 = zext i8 %31 to i32
  %33 = icmp sle i32 %32, 247
  br i1 %33, label %34, label %35

34:                                               ; preds = %30
  store i32 4, ptr %2, align 4
  br label %45

35:                                               ; preds = %30, %26
  %36 = load i8, ptr %3, align 1, !tbaa !11
  %37 = zext i8 %36 to i32
  %38 = icmp sle i32 248, %37
  br i1 %38, label %39, label %44

39:                                               ; preds = %35
  %40 = load i8, ptr %3, align 1, !tbaa !11
  %41 = zext i8 %40 to i32
  %42 = icmp sle i32 %41, 251
  br i1 %42, label %43, label %44

43:                                               ; preds = %39
  store i32 5, ptr %2, align 4
  br label %45

44:                                               ; preds = %39, %35
  store i32 6, ptr %2, align 4
  br label %45

45:                                               ; preds = %44, %43, %34, %25, %16, %7
  %46 = load i32, ptr %2, align 4
  ret i32 %46
}

; Function Attrs: mustprogress nounwind uwtable
define linkonce_odr hidden noundef zeroext i1 @_ZNK5boost7archive6detail18utf8_codecvt_facet24invalid_continuing_octetEh(ptr noundef nonnull align 8 dereferenceable(24) %0, i8 noundef zeroext %1) #3 comdat align 2 {
  %3 = alloca ptr, align 8
  %4 = alloca i8, align 1
  store ptr %0, ptr %3, align 8, !tbaa !3
  store i8 %1, ptr %4, align 1, !tbaa !11
  %5 = load i8, ptr %4, align 1, !tbaa !11
  %6 = zext i8 %5 to i32
  %7 = icmp slt i32 %6, 128
  br i1 %7, label %12, label %8

8:                                                ; preds = %2
  %9 = load i8, ptr %4, align 1, !tbaa !11
  %10 = zext i8 %9 to i32
  %11 = icmp slt i32 191, %10
  br label %12

12:                                               ; preds = %8, %2
  %13 = phi i1 [ true, %2 ], [ %11, %8 ]
  ret i1 %13
}

; Function Attrs: mustprogress nounwind uwtable
define linkonce_odr hidden noundef i32 @_ZN5boost7archive6detail18utf8_codecvt_facet20get_cont_octet_countEh(i8 noundef zeroext %0) #3 comdat align 2 {
  %2 = alloca i8, align 1
  store i8 %0, ptr %2, align 1, !tbaa !11
  %3 = load i8, ptr %2, align 1, !tbaa !11
  %4 = call noundef i32 @_ZN5boost7archive6detail18utf8_codecvt_facet15get_octet_countEh(i8 noundef zeroext %3)
  %5 = sub i32 %4, 1
  ret i32 %5
}

; Function Attrs: mustprogress nounwind uwtable
define linkonce_odr hidden noundef zeroext i1 @_ZNK5boost7archive6detail18utf8_codecvt_facet21invalid_leading_octetEh(ptr noundef nonnull align 8 dereferenceable(24) %0, i8 noundef zeroext %1) #3 comdat align 2 {
  %3 = alloca ptr, align 8
  %4 = alloca i8, align 1
  store ptr %0, ptr %3, align 8, !tbaa !3
  store i8 %1, ptr %4, align 1, !tbaa !11
  %5 = load i8, ptr %4, align 1, !tbaa !11
  %6 = zext i8 %5 to i32
  %7 = icmp slt i32 127, %6
  br i1 %7, label %8, label %12

8:                                                ; preds = %2
  %9 = load i8, ptr %4, align 1, !tbaa !11
  %10 = zext i8 %9 to i32
  %11 = icmp slt i32 %10, 192
  br i1 %11, label %16, label %12

12:                                               ; preds = %8, %2
  %13 = load i8, ptr %4, align 1, !tbaa !11
  %14 = zext i8 %13 to i32
  %15 = icmp sgt i32 %14, 253
  br label %16

16:                                               ; preds = %12, %8
  %17 = phi i1 [ true, %8 ], [ %15, %12 ]
  ret i1 %17
}

; Function Attrs: inlinehint mustprogress nounwind uwtable
define linkonce_odr hidden noundef ptr @_ZN5boost7archive6detail6detail25get_octet1_modifier_tableEv() #6 comdat {
  ret ptr @_ZZN5boost7archive6detail6detail25get_octet1_modifier_tableEvE21octet1_modifier_table
}

; Function Attrs: mustprogress uwtable
define noundef i32 @_ZNK5boost7archive6detail18utf8_codecvt_facet5do_inER11__mbstate_tPKcS6_RS6_PwS8_RS8_(ptr noundef nonnull align 8 dereferenceable(24) %0, ptr noundef nonnull align 4 dereferenceable(8) %1, ptr noundef %2, ptr noundef %3, ptr noundef nonnull align 8 dereferenceable(8) %4, ptr noundef %5, ptr noundef %6, ptr noundef nonnull align 8 dereferenceable(8) %7) unnamed_addr #0 align 2 {
  %9 = alloca i32, align 4
  %10 = alloca ptr, align 8
  %11 = alloca ptr, align 8
  %12 = alloca ptr, align 8
  %13 = alloca ptr, align 8
  %14 = alloca ptr, align 8
  %15 = alloca ptr, align 8
  %16 = alloca ptr, align 8
  %17 = alloca ptr, align 8
  %18 = alloca ptr, align 8
  %19 = alloca i32, align 4
  %20 = alloca i32, align 4
  %21 = alloca i32, align 4
  %22 = alloca i32, align 4
  store ptr %0, ptr %10, align 8, !tbaa !3
  store ptr %1, ptr %11, align 8, !tbaa !3
  store ptr %2, ptr %12, align 8, !tbaa !3
  store ptr %3, ptr %13, align 8, !tbaa !3
  store ptr %4, ptr %14, align 8, !tbaa !3
  store ptr %5, ptr %15, align 8, !tbaa !3
  store ptr %6, ptr %16, align 8, !tbaa !3
  store ptr %7, ptr %17, align 8, !tbaa !3
  %23 = load ptr, ptr %10, align 8
  call void @llvm.lifetime.start.p0(i64 8, ptr %18) #7
  %24 = call noundef ptr @_ZN5boost7archive6detail6detail25get_octet1_modifier_tableEv() #7
  store ptr %24, ptr %18, align 8, !tbaa !3
  br label %25

25:                                               ; preds = %113, %8
  %26 = load ptr, ptr %12, align 8, !tbaa !3
  %27 = load ptr, ptr %13, align 8, !tbaa !3
  %28 = icmp ne ptr %26, %27
  br i1 %28, label %29, label %33

29:                                               ; preds = %25
  %30 = load ptr, ptr %15, align 8, !tbaa !3
  %31 = load ptr, ptr %16, align 8, !tbaa !3
  %32 = icmp ne ptr %30, %31
  br label %33

33:                                               ; preds = %29, %25
  %34 = phi i1 [ false, %25 ], [ %32, %29 ]
  br i1 %34, label %35, label %114

35:                                               ; preds = %33
  %36 = load ptr, ptr %12, align 8, !tbaa !3
  %37 = load i8, ptr %36, align 1, !tbaa !11
  %38 = call noundef zeroext i1 @_ZNK5boost7archive6detail18utf8_codecvt_facet21invalid_leading_octetEh(ptr noundef nonnull align 8 dereferenceable(24) %23, i8 noundef zeroext %37)
  br i1 %38, label %39, label %44

39:                                               ; preds = %35
  %40 = load ptr, ptr %12, align 8, !tbaa !3
  %41 = load ptr, ptr %14, align 8, !tbaa !3
  store ptr %40, ptr %41, align 8, !tbaa !3
  %42 = load ptr, ptr %15, align 8, !tbaa !3
  %43 = load ptr, ptr %17, align 8, !tbaa !3
  store ptr %42, ptr %43, align 8, !tbaa !3
  store i32 2, ptr %9, align 4
  store i32 1, ptr %19, align 4
  br label %124

44:                                               ; preds = %35
  call void @llvm.lifetime.start.p0(i64 4, ptr %20) #7
  %45 = load ptr, ptr %12, align 8, !tbaa !3
  %46 = load i8, ptr %45, align 1, !tbaa !11
  %47 = call noundef i32 @_ZN5boost7archive6detail18utf8_codecvt_facet20get_cont_octet_countEh(i8 noundef zeroext %46)
  store i32 %47, ptr %20, align 4, !tbaa !12
  call void @llvm.lifetime.start.p0(i64 4, ptr %21) #7
  %48 = load ptr, ptr %12, align 8, !tbaa !3
  %49 = getelementptr inbounds nuw i8, ptr %48, i32 1
  store ptr %49, ptr %12, align 8, !tbaa !3
  %50 = load i8, ptr %48, align 1, !tbaa !11
  %51 = zext i8 %50 to i32
  %52 = load ptr, ptr %18, align 8, !tbaa !3
  %53 = load i32, ptr %20, align 4, !tbaa !12
  %54 = sext i32 %53 to i64
  %55 = getelementptr inbounds i32, ptr %52, i64 %54
  %56 = load i32, ptr %55, align 4, !tbaa !14
  %57 = sub nsw i32 %51, %56
  store i32 %57, ptr %21, align 4, !tbaa !14
  call void @llvm.lifetime.start.p0(i64 4, ptr %22) #7
  store i32 0, ptr %22, align 4, !tbaa !12
  br label %58

58:                                               ; preds = %77, %44
  %59 = load i32, ptr %22, align 4, !tbaa !12
  %60 = load i32, ptr %20, align 4, !tbaa !12
  %61 = icmp ne i32 %59, %60
  br i1 %61, label %62, label %66

62:                                               ; preds = %58
  %63 = load ptr, ptr %12, align 8, !tbaa !3
  %64 = load ptr, ptr %13, align 8, !tbaa !3
  %65 = icmp ne ptr %63, %64
  br label %66

66:                                               ; preds = %62, %58
  %67 = phi i1 [ false, %58 ], [ %65, %62 ]
  br i1 %67, label %68, label %89

68:                                               ; preds = %66
  %69 = load ptr, ptr %12, align 8, !tbaa !3
  %70 = load i8, ptr %69, align 1, !tbaa !11
  %71 = call noundef zeroext i1 @_ZNK5boost7archive6detail18utf8_codecvt_facet24invalid_continuing_octetEh(ptr noundef nonnull align 8 dereferenceable(24) %23, i8 noundef zeroext %70)
  br i1 %71, label %72, label %77

72:                                               ; preds = %68
  %73 = load ptr, ptr %12, align 8, !tbaa !3
  %74 = load ptr, ptr %14, align 8, !tbaa !3
  store ptr %73, ptr %74, align 8, !tbaa !3
  %75 = load ptr, ptr %15, align 8, !tbaa !3
  %76 = load ptr, ptr %17, align 8, !tbaa !3
  store ptr %75, ptr %76, align 8, !tbaa !3
  store i32 2, ptr %9, align 4
  store i32 1, ptr %19, align 4
  br label %111

77:                                               ; preds = %68
  %78 = load i32, ptr %21, align 4, !tbaa !14
  %79 = mul nsw i32 %78, 64
  store i32 %79, ptr %21, align 4, !tbaa !14
  %80 = load ptr, ptr %12, align 8, !tbaa !3
  %81 = getelementptr inbounds nuw i8, ptr %80, i32 1
  store ptr %81, ptr %12, align 8, !tbaa !3
  %82 = load i8, ptr %80, align 1, !tbaa !11
  %83 = zext i8 %82 to i32
  %84 = sub nsw i32 %83, 128
  %85 = load i32, ptr %21, align 4, !tbaa !14
  %86 = add nsw i32 %85, %84
  store i32 %86, ptr %21, align 4, !tbaa !14
  %87 = load i32, ptr %22, align 4, !tbaa !12
  %88 = add nsw i32 %87, 1
  store i32 %88, ptr %22, align 4, !tbaa !12
  br label %58, !llvm.loop !16

89:                                               ; preds = %66
  %90 = load ptr, ptr %12, align 8, !tbaa !3
  %91 = load ptr, ptr %13, align 8, !tbaa !3
  %92 = icmp eq ptr %90, %91
  br i1 %92, label %93, label %107

93:                                               ; preds = %89
  %94 = load i32, ptr %22, align 4, !tbaa !12
  %95 = load i32, ptr %20, align 4, !tbaa !12
  %96 = icmp ne i32 %94, %95
  br i1 %96, label %97, label %107

97:                                               ; preds = %93
  %98 = load ptr, ptr %12, align 8, !tbaa !3
  %99 = load i32, ptr %22, align 4, !tbaa !12
  %100 = add nsw i32 %99, 1
  %101 = sext i32 %100 to i64
  %102 = sub i64 0, %101
  %103 = getelementptr inbounds i8, ptr %98, i64 %102
  %104 = load ptr, ptr %14, align 8, !tbaa !3
  store ptr %103, ptr %104, align 8, !tbaa !3
  %105 = load ptr, ptr %15, align 8, !tbaa !3
  %106 = load ptr, ptr %17, align 8, !tbaa !3
  store ptr %105, ptr %106, align 8, !tbaa !3
  store i32 1, ptr %9, align 4
  store i32 1, ptr %19, align 4
  br label %111

107:                                              ; preds = %93, %89
  %108 = load i32, ptr %21, align 4, !tbaa !14
  %109 = load ptr, ptr %15, align 8, !tbaa !3
  %110 = getelementptr inbounds nuw i32, ptr %109, i32 1
  store ptr %110, ptr %15, align 8, !tbaa !3
  store i32 %108, ptr %109, align 4, !tbaa !14
  store i32 0, ptr %19, align 4
  br label %111

111:                                              ; preds = %107, %97, %72
  call void @llvm.lifetime.end.p0(i64 4, ptr %22) #7
  call void @llvm.lifetime.end.p0(i64 4, ptr %21) #7
  call void @llvm.lifetime.end.p0(i64 4, ptr %20) #7
  %112 = load i32, ptr %19, align 4
  switch i32 %112, label %124 [
    i32 0, label %113
  ]

113:                                              ; preds = %111
  br label %25, !llvm.loop !18

114:                                              ; preds = %33
  %115 = load ptr, ptr %12, align 8, !tbaa !3
  %116 = load ptr, ptr %14, align 8, !tbaa !3
  store ptr %115, ptr %116, align 8, !tbaa !3
  %117 = load ptr, ptr %15, align 8, !tbaa !3
  %118 = load ptr, ptr %17, align 8, !tbaa !3
  store ptr %117, ptr %118, align 8, !tbaa !3
  %119 = load ptr, ptr %12, align 8, !tbaa !3
  %120 = load ptr, ptr %13, align 8, !tbaa !3
  %121 = icmp eq ptr %119, %120
  br i1 %121, label %122, label %123

122:                                              ; preds = %114
  store i32 0, ptr %9, align 4
  store i32 1, ptr %19, align 4
  br label %124

123:                                              ; preds = %114
  store i32 1, ptr %9, align 4
  store i32 1, ptr %19, align 4
  br label %124

124:                                              ; preds = %123, %122, %111, %39
  call void @llvm.lifetime.end.p0(i64 8, ptr %18) #7
  %125 = load i32, ptr %9, align 4
  ret i32 %125
}