; Function Attrs: mustprogress nofree norecurse nosync nounwind memory(argmem: readwrite) uwtable
define noundef range(i32 0, 3) i32 @_ZNK5boost7archive6detail18utf8_codecvt_facet5do_inER11__mbstate_tPKcS6_RS6_PwS8_RS8_(ptr nocapture nonnull readnone align 8 %0, ptr nocapture nonnull readnone align 4 %1, ptr noundef %2, ptr noundef readnone %3, ptr nocapture noundef nonnull writeonly align 8 dereferenceable(8) %4, ptr noundef %5, ptr noundef readnone %6, ptr nocapture noundef nonnull writeonly align 8 dereferenceable(8) %7) unnamed_addr #5 align 2 {
  %9 = icmp ne ptr %2, %3
  %10 = icmp ne ptr %5, %6
  %11 = and i1 %9, %10
  br i1 %11, label %.lr.ph77, label %._crit_edge78

.lr.ph77:                                         ; preds = %8, %50
  %.04875 = phi ptr [ %.149.lcssa103, %50 ], [ %2, %8 ]
  %.05074 = phi ptr [ %51, %50 ], [ %5, %8 ]
  %12 = load i8, ptr %.04875, align 1, !tbaa !6
  %or.cond.i = icmp slt i8 %12, -64
  %13 = icmp ugt i8 %12, -3
  %spec.select.i = or i1 %or.cond.i, %13
  br i1 %spec.select.i, label %14, label %15

14:                                               ; preds = %.lr.ph77
  store ptr %.04875, ptr %4, align 8, !tbaa !8
  store ptr %.05074, ptr %7, align 8, !tbaa !8
  br label %.thread

15:                                               ; preds = %.lr.ph77
  %16 = icmp sgt i8 %12, -1
  br i1 %16, label %._crit_edge.thread, label %18

._crit_edge.thread:                               ; preds = %15
  %17 = zext nneg i8 %12 to i32
  %.1496796 = getelementptr inbounds nuw i8, ptr %.04875, i64 1
  br label %50

18:                                               ; preds = %15
  %19 = and i8 %12, -32
  %or.cond.i.i = icmp eq i8 %19, -64
  br i1 %or.cond.i.i, label %_ZN5boost7archive6detail18utf8_codecvt_facet20get_cont_octet_countEh.exit, label %20

20:                                               ; preds = %18
  %21 = and i8 %12, -16
  %or.cond5.i.i = icmp eq i8 %21, -32
  br i1 %or.cond5.i.i, label %_ZN5boost7archive6detail18utf8_codecvt_facet20get_cont_octet_countEh.exit, label %22

22:                                               ; preds = %20
  %23 = and i8 %12, -8
  %or.cond8.i.i = icmp eq i8 %23, -16
  br i1 %or.cond8.i.i, label %_ZN5boost7archive6detail18utf8_codecvt_facet20get_cont_octet_countEh.exit, label %24

24:                                               ; preds = %22
  %25 = and i8 %12, -4
  %or.cond11.i.i = icmp eq i8 %25, -8
  %26 = select i1 %or.cond11.i.i, i32 4, i32 5
  br label %_ZN5boost7archive6detail18utf8_codecvt_facet20get_cont_octet_countEh.exit

_ZN5boost7archive6detail18utf8_codecvt_facet20get_cont_octet_countEh.exit: ; preds = %18, %20, %22, %24
  %.0.i.i = phi i32 [ 1, %18 ], [ 2, %20 ], [ 3, %22 ], [ %26, %24 ]
  %27 = zext i8 %12 to i32
  %28 = zext nneg i32 %.0.i.i to i64
  %29 = getelementptr inbounds i32, ptr @_ZZN5boost7archive6detail6detail25get_octet1_modifier_tableEvE21octet1_modifier_table, i64 %28
  %30 = load i32, ptr %29, align 4, !tbaa !10
  %31 = sub nsw i32 %27, %30
  %.14967 = getelementptr inbounds nuw i8, ptr %.04875, i64 1
  %.not = icmp eq ptr %.14967, %3
  br i1 %.not, label %._crit_edge, label %.lr.ph

.lr.ph:                                           ; preds = %_ZN5boost7archive6detail18utf8_codecvt_facet20get_cont_octet_countEh.exit, %35
  %.14970 = phi ptr [ %.149, %35 ], [ %.14967, %_ZN5boost7archive6detail18utf8_codecvt_facet20get_cont_octet_countEh.exit ]
  %.069 = phi i32 [ %40, %35 ], [ 0, %_ZN5boost7archive6detail18utf8_codecvt_facet20get_cont_octet_countEh.exit ]
  %.04568 = phi i32 [ %39, %35 ], [ %31, %_ZN5boost7archive6detail18utf8_codecvt_facet20get_cont_octet_countEh.exit ]
  %32 = load i8, ptr %.14970, align 1, !tbaa !6
  %33 = icmp sgt i8 %32, -65
  br i1 %33, label %34, label %35

34:                                               ; preds = %.lr.ph
  store ptr %.14970, ptr %4, align 8, !tbaa !8
  store ptr %.05074, ptr %7, align 8, !tbaa !8
  br label %.thread

35:                                               ; preds = %.lr.ph
  %36 = shl nsw i32 %.04568, 6
  %37 = zext i8 %32 to i32
  %38 = add nsw i32 %37, -128
  %39 = or disjoint i32 %38, %36
  %40 = add nuw nsw i32 %.069, 1
  %.149 = getelementptr inbounds nuw i8, ptr %.14970, i64 1
  %41 = icmp ne i32 %40, %.0.i.i
  %42 = icmp ne ptr %.149, %3
  %43 = select i1 %41, i1 %42, i1 false
  br i1 %43, label %.lr.ph, label %._crit_edge.loopexit, !llvm.loop !12

._crit_edge.loopexit:                             ; preds = %35
  %44 = add nuw nsw i32 %.069, 2
  %45 = zext nneg i32 %44 to i64
  br label %._crit_edge

._crit_edge:                                      ; preds = %._crit_edge.loopexit, %_ZN5boost7archive6detail18utf8_codecvt_facet20get_cont_octet_countEh.exit
  %.045.lcssa = phi i32 [ %31, %_ZN5boost7archive6detail18utf8_codecvt_facet20get_cont_octet_countEh.exit ], [ %39, %._crit_edge.loopexit ]
  %.0.lcssa = phi i64 [ 1, %_ZN5boost7archive6detail18utf8_codecvt_facet20get_cont_octet_countEh.exit ], [ %45, %._crit_edge.loopexit ]
  %.149.lcssa = phi ptr [ %.14967, %_ZN5boost7archive6detail18utf8_codecvt_facet20get_cont_octet_countEh.exit ], [ %.149, %._crit_edge.loopexit ]
  %.lcssa = phi i1 [ true, %_ZN5boost7archive6detail18utf8_codecvt_facet20get_cont_octet_countEh.exit ], [ %41, %._crit_edge.loopexit ]
  %46 = icmp eq ptr %.149.lcssa, %3
  %brmerge.not = and i1 %46, %.lcssa
  br i1 %brmerge.not, label %47, label %50

47:                                               ; preds = %._crit_edge
  %48 = sub nsw i64 0, %.0.lcssa
  %49 = getelementptr inbounds i8, ptr %.149.lcssa, i64 %48
  store ptr %49, ptr %4, align 8, !tbaa !8
  store ptr %.05074, ptr %7, align 8, !tbaa !8
  br label %.thread

50:                                               ; preds = %._crit_edge.thread, %._crit_edge
  %.149.lcssa103 = phi ptr [ %.1496796, %._crit_edge.thread ], [ %.149.lcssa, %._crit_edge ]
  %.045.lcssa102 = phi i32 [ %17, %._crit_edge.thread ], [ %.045.lcssa, %._crit_edge ]
  %51 = getelementptr inbounds nuw i8, ptr %.05074, i64 4
  store i32 %.045.lcssa102, ptr %.05074, align 4, !tbaa !10
  %52 = icmp ne ptr %.149.lcssa103, %3
  %53 = icmp ne ptr %51, %6
  %54 = select i1 %52, i1 %53, i1 false
  br i1 %54, label %.lr.ph77, label %._crit_edge78, !llvm.loop !14

._crit_edge78:                                    ; preds = %50, %8
  %.050.lcssa = phi ptr [ %5, %8 ], [ %51, %50 ]
  %.048.lcssa = phi ptr [ %2, %8 ], [ %.149.lcssa103, %50 ]
  store ptr %.048.lcssa, ptr %4, align 8, !tbaa !8
  store ptr %.050.lcssa, ptr %7, align 8, !tbaa !8
  %55 = icmp ne ptr %.048.lcssa, %3
  %. = zext i1 %55 to i32
  br label %.thread

.thread:                                          ; preds = %47, %34, %._crit_edge78, %14
  %.1 = phi i32 [ 2, %14 ], [ %., %._crit_edge78 ], [ 1, %47 ], [ 2, %34 ]
  ret i32 %.1
}